; Function Attrs: nofree norecurse nosync nounwind memory(read, inaccessiblemem: none) uwtable
define i32 @Llb_ManCutLiNum(ptr noundef readonly captures(none) %0, ptr noundef readonly captures(none) %1) local_unnamed_addr #5 {
  %3 = getelementptr i8, ptr %1, i64 4
  %.val27 = load i32, ptr %3, align 4, !tbaa !10
  %4 = icmp sgt i32 %.val27, 0
  br i1 %4, label %.lr.ph46, label %.critedge

.lr.ph46:                                         ; preds = %2
  %5 = getelementptr i8, ptr %1, i64 8
  %.val = load ptr, ptr %5, align 8, !tbaa !9
  %6 = getelementptr i8, ptr %0, i64 176
  %7 = getelementptr i8, ptr %0, i64 32
  %8 = getelementptr i8, ptr %0, i64 112
  %wide.trip.count = zext nneg i32 %.val27 to i64
  br label %9

9:                                                ; preds = %.lr.ph46, %.critedge2
  %indvars.iv = phi i64 [ 0, %.lr.ph46 ], [ %indvars.iv.next, %.critedge2 ]
  %.045 = phi i32 [ 0, %.lr.ph46 ], [ %.1, %.critedge2 ]
  %.02144 = phi i32 [ -1, %.lr.ph46 ], [ %.122, %.critedge2 ]
  %10 = getelementptr inbounds nuw ptr, ptr %.val, i64 %indvars.iv
  %11 = load ptr, ptr %10, align 8, !tbaa !11
  %12 = getelementptr i8, ptr %11, i64 24
  %.val28 = load i64, ptr %12, align 8
  %13 = and i64 %.val28, 7
  %.not = icmp eq i64 %13, 2
  br i1 %.not, label %.critedge2, label %.preheader

.preheader:                                       ; preds = %9
  %14 = trunc i64 %.val28 to i32
  %15 = lshr i32 %14, 6
  %.not48 = icmp ult i32 %14, 64
  br i1 %.not48, label %.critedge2, label %.lr.ph

.lr.ph:                                           ; preds = %.preheader
  %16 = getelementptr inbounds nuw i8, ptr %11, i64 36
  %.val31 = load ptr, ptr %7, align 8, !tbaa !35
  %.not.i = icmp eq ptr %.val31, null
  br i1 %.not.i, label %.lr.ph.split.us, label %.lr.ph.split

.lr.ph.split.us:                                  ; preds = %.lr.ph
  %.val4.i.us = load i64, ptr inttoptr (i64 24 to ptr), align 8
  %17 = and i64 %.val4.i.us, 7
  %.not.i32.us = icmp ne i64 %17, 3
  tail call void @llvm.assume(i1 %.not.i32.us)
  %umax53 = tail call i32 @llvm.umax.i32(i32 %15, i32 1)
  %.val30.us.sink = load ptr, ptr %6, align 8, !tbaa !62
  br label %.lr.ph.split.us.split

.lr.ph.split.us.split:                            ; preds = %.lr.ph.split.us, %Aig_ManObj.exit.us
  %.238.us = phi i32 [ %29, %Aig_ManObj.exit.us ], [ %.02144, %.lr.ph.split.us ]
  %.02337.us = phi i32 [ %30, %Aig_ManObj.exit.us ], [ 0, %.lr.ph.split.us ]
  %.not25.us = icmp eq i32 %.02337.us, 0
  br i1 %.not25.us, label %24, label %18

18:                                               ; preds = %.lr.ph.split.us.split
  %19 = ashr i32 %.238.us, 1
  %20 = mul nsw i32 %19, 5
  %21 = and i32 %.238.us, 1
  %22 = add nuw nsw i32 %21, 3
  %23 = add i32 %22, %20
  br label %Aig_ManObj.exit.us

24:                                               ; preds = %.lr.ph.split.us.split
  %25 = load i32, ptr %16, align 4, !tbaa !42
  %26 = mul nsw i32 %25, 5
  br label %Aig_ManObj.exit.us

Aig_ManObj.exit.us:                               ; preds = %24, %18
  %.sink60 = phi i32 [ %26, %24 ], [ %23, %18 ]
  %27 = sext i32 %.sink60 to i64
  %28 = getelementptr inbounds i32, ptr %.val30.us.sink, i64 %27
  %29 = load i32, ptr %28, align 4, !tbaa !43
  %30 = add nuw nsw i32 %.02337.us, 1
  %exitcond54.not = icmp eq i32 %30, %umax53
  br i1 %exitcond54.not, label %.critedge2, label %.lr.ph.split.us.split, !llvm.loop !63

.lr.ph.split:                                     ; preds = %.lr.ph
  %31 = getelementptr i8, ptr %.val31, i64 8
  %.val.i = load ptr, ptr %31, align 8, !tbaa !9
  %umax = tail call i32 @llvm.umax.i32(i32 %15, i32 1)
  %.val30.sink = load ptr, ptr %6, align 8, !tbaa !62
  br label %32

32:                                               ; preds = %.lr.ph.split, %Saig_ObjIsLi.exit.thread
  %.238 = phi i32 [ %.02144, %.lr.ph.split ], [ %44, %Saig_ObjIsLi.exit.thread ]
  %.02337 = phi i32 [ 0, %.lr.ph.split ], [ %52, %Saig_ObjIsLi.exit.thread ]
  %.not25 = icmp eq i32 %.02337, 0
  br i1 %.not25, label %39, label %33

33:                                               ; preds = %32
  %34 = ashr i32 %.238, 1
  %35 = mul nsw i32 %34, 5
  %36 = and i32 %.238, 1
  %37 = add nuw nsw i32 %36, 3
  %38 = add i32 %37, %35
  br label %Aig_ManObj.exit

39:                                               ; preds = %32
  %40 = load i32, ptr %16, align 4, !tbaa !42
  %41 = mul nsw i32 %40, 5
  br label %Aig_ManObj.exit

Aig_ManObj.exit:                                  ; preds = %39, %33
  %.sink61 = phi i32 [ %41, %39 ], [ %38, %33 ]
  %42 = sext i32 %.sink61 to i64
  %43 = getelementptr inbounds i32, ptr %.val30.sink, i64 %42
  %44 = load i32, ptr %43, align 4, !tbaa !43
  %45 = ashr i32 %44, 1
  %46 = sext i32 %45 to i64
  %47 = getelementptr inbounds ptr, ptr %.val.i, i64 %46
  %48 = load ptr, ptr %47, align 8, !tbaa !11
  %49 = getelementptr i8, ptr %48, i64 24
  %.val4.i = load i64, ptr %49, align 8
  %50 = and i64 %.val4.i, 7
  %.not.i32 = icmp eq i64 %50, 3
  br i1 %.not.i32, label %Saig_ObjIsLi.exit, label %Saig_ObjIsLi.exit.thread

Saig_ObjIsLi.exit:                                ; preds = %Aig_ManObj.exit
  %.val.i33 = load i32, ptr %48, align 8, !tbaa !40
  %.val3.i = load i32, ptr %8, align 8, !tbaa !48
  %.not35 = icmp slt i32 %.val.i33, %.val3.i
  br i1 %.not35, label %Saig_ObjIsLi.exit.thread, label %.split

.split:                                           ; preds = %Saig_ObjIsLi.exit
  %51 = add nsw i32 %.045, 1
  br label %.critedge2

Saig_ObjIsLi.exit.thread:                         ; preds = %Aig_ManObj.exit, %Saig_ObjIsLi.exit
  %52 = add nuw nsw i32 %.02337, 1
  %exitcond.not = icmp eq i32 %52, %umax
  br i1 %exitcond.not, label %.critedge2, label %32, !llvm.loop !63

.critedge2:                                       ; preds = %Saig_ObjIsLi.exit.thread, %Aig_ManObj.exit.us, %.preheader, %.split, %9
  %.122 = phi i32 [ %.02144, %9 ], [ %44, %.split ], [ %.02144, %.preheader ], [ %29, %Aig_ManObj.exit.us ], [ %44, %Saig_ObjIsLi.exit.thread ]
  %.1 = phi i32 [ %.045, %9 ], [ %51, %.split ], [ %.045, %.preheader ], [ %.045, %Aig_ManObj.exit.us ], [ %.045, %Saig_ObjIsLi.exit.thread ]
  %indvars.iv.next = add nuw nsw i64 %indvars.iv, 1
  %exitcond56.not = icmp eq i64 %indvars.iv.next, %wide.trip.count
  br i1 %exitcond56.not, label %.critedge, label %9, !llvm.loop !64

.critedge:                                        ; preds = %.critedge2, %2
  %.0.lcssa = phi i32 [ 0, %2 ], [ %.1, %.critedge2 ]
  ret i32 %.0.lcssa
}